target datalayout = "e-m:e-p270:32:32-p271:32:32-p272:64:64-i64:64-i128:128-f80:128-n8:16:32:64-S128"
target triple = "x86_64-pc-linux-gnu"

%struct.AVFormatContext = type { ptr, ptr, ptr, ptr, ptr, i32, i32, ptr, i32, ptr, i32, ptr, ptr, i64, i64, i64, i32, i32, i32, i64, i64, ptr, i32, i32, ptr, i32, i32, i32, i32, ptr, i64, i32, i32, %struct.AVIOInterruptCB, i32, i32, i32, i32, i64, i32, i32, i32, i32, i32, i32, i32, i32, i32, i32, i32, i32, i64, i32, i32, i32, i32, i32, ptr, ptr, ptr, ptr, i32, ptr, ptr, ptr, ptr, i32, ptr, ptr, i64, ptr, ptr, ptr, i64 }
%struct.AVIOInterruptCB = type { ptr, ptr }
%struct.AVPacket = type { ptr, i64, i64, ptr, i32, i32, i32, ptr, i32, i64, i64, ptr, ptr, %struct.AVRational }
%struct.AVRational = type { i32, i32 }
%struct.DTSHDDemuxContext = type { i64 }

; Function Attrs: alwaysinline nounwind uwtable
define internal i64 @avio_tell(ptr noundef %0) #5 {
  %2 = alloca ptr, align 8
  store ptr %0, ptr %2, align 8, !tbaa !34
  %3 = load ptr, ptr %2, align 8, !tbaa !34
  %4 = call i64 @avio_seek(ptr noundef %3, i64 noundef 0, i32 noundef 1)
  ret i64 %4
}

; Function Attrs: nounwind uwtable
define internal i32 @raw_read_packet(ptr noundef %0, ptr noundef %1) #0 {
  %3 = alloca i32, align 4
  %4 = alloca ptr, align 8
  %5 = alloca ptr, align 8
  %6 = alloca ptr, align 8
  %7 = alloca i64, align 8
  %8 = alloca i64, align 8
  %9 = alloca i32, align 4
  %10 = alloca i32, align 4
  store ptr %0, ptr %4, align 8, !tbaa !14
  store ptr %1, ptr %5, align 8, !tbaa !71
  call void @llvm.lifetime.start.p0(i64 8, ptr %6) #8
  %11 = load ptr, ptr %4, align 8, !tbaa !14
  %12 = getelementptr inbounds nuw %struct.AVFormatContext, ptr %11, i32 0, i32 3
  %13 = load ptr, ptr %12, align 8, !tbaa !16
  store ptr %13, ptr %6, align 8, !tbaa !31
  call void @llvm.lifetime.start.p0(i64 8, ptr %7) #8
  call void @llvm.lifetime.start.p0(i64 8, ptr %8) #8
  call void @llvm.lifetime.start.p0(i64 4, ptr %9) #8
  %14 = load ptr, ptr %6, align 8, !tbaa !31
  %15 = getelementptr inbounds nuw %struct.DTSHDDemuxContext, ptr %14, i32 0, i32 0
  %16 = load i64, ptr %15, align 8, !tbaa !60
  %17 = load ptr, ptr %4, align 8, !tbaa !14
  %18 = getelementptr inbounds nuw %struct.AVFormatContext, ptr %17, i32 0, i32 4
  %19 = load ptr, ptr %18, align 8, !tbaa !33
  %20 = call i64 @avio_tell(ptr noundef %19)
  %21 = sub i64 %16, %20
  store i64 %21, ptr %8, align 8, !tbaa !59
  %22 = load i64, ptr %8, align 8, !tbaa !59
  %23 = icmp sgt i64 %22, 1024
  br i1 %23, label %24, label %25

24:                                               ; preds = %2
  br label %27

25:                                               ; preds = %2
  %26 = load i64, ptr %8, align 8, !tbaa !59
  br label %27

27:                                               ; preds = %25, %24
  %28 = phi i64 [ 1024, %24 ], [ %26, %25 ]
  store i64 %28, ptr %7, align 8, !tbaa !59
  %29 = load i64, ptr %7, align 8, !tbaa !59
  %30 = icmp sle i64 %29, 0
  br i1 %30, label %31, label %32

31:                                               ; preds = %27
  store i32 -541478725, ptr %3, align 4
  store i32 1, ptr %10, align 4
  br label %48

32:                                               ; preds = %27
  %33 = load ptr, ptr %4, align 8, !tbaa !14
  %34 = getelementptr inbounds nuw %struct.AVFormatContext, ptr %33, i32 0, i32 4
  %35 = load ptr, ptr %34, align 8, !tbaa !33
  %36 = load ptr, ptr %5, align 8, !tbaa !71
  %37 = load i64, ptr %7, align 8, !tbaa !59
  %38 = trunc i64 %37 to i32
  %39 = call i32 @av_get_packet(ptr noundef %35, ptr noundef %36, i32 noundef %38)
  store i32 %39, ptr %9, align 4, !tbaa !70
  %40 = load i32, ptr %9, align 4, !tbaa !70
  %41 = icmp slt i32 %40, 0
  br i1 %41, label %42, label %44

42:                                               ; preds = %32
  %43 = load i32, ptr %9, align 4, !tbaa !70
  store i32 %43, ptr %3, align 4
  store i32 1, ptr %10, align 4
  br label %48

44:                                               ; preds = %32
  %45 = load ptr, ptr %5, align 8, !tbaa !71
  %46 = getelementptr inbounds nuw %struct.AVPacket, ptr %45, i32 0, i32 5
  store i32 0, ptr %46, align 4, !tbaa !73
  %47 = load i32, ptr %9, align 4, !tbaa !70
  store i32 %47, ptr %3, align 4
  store i32 1, ptr %10, align 4
  br label %48

48:                                               ; preds = %44, %42, %31
  call void @llvm.lifetime.end.p0(i64 4, ptr %9) #8
  call void @llvm.lifetime.end.p0(i64 8, ptr %8) #8
  call void @llvm.lifetime.end.p0(i64 8, ptr %7) #8
  call void @llvm.lifetime.end.p0(i64 8, ptr %6) #8
  %49 = load i32, ptr %3, align 4
  ret i32 %49
}