; Function Attrs: nounwind uwtable
define internal i32 @raw_read_packet(ptr noundef readonly captures(none) %0, ptr noundef %1) #1 {
  %3 = getelementptr inbounds nuw i8, ptr %0, i64 24
  %4 = load ptr, ptr %3, align 8, !tbaa !12
  %5 = load i64, ptr %4, align 8, !tbaa !51
  %6 = getelementptr inbounds nuw i8, ptr %0, i64 32
  %7 = load ptr, ptr %6, align 8, !tbaa !27
  %8 = tail call i64 @avio_seek(ptr noundef %7, i64 noundef 0, i32 noundef 1) #4
  %9 = sub i64 %5, %8
  %10 = icmp slt i64 %9, 1
  br i1 %10, label %19, label %11

11:                                               ; preds = %2
  %12 = tail call i64 @llvm.umin.i64(i64 %9, i64 1024)
  %13 = load ptr, ptr %6, align 8, !tbaa !27
  %14 = trunc nuw nsw i64 %12 to i32
  %15 = tail call i32 @av_get_packet(ptr noundef %13, ptr noundef %1, i32 noundef %14) #4
  %16 = icmp slt i32 %15, 0
  br i1 %16, label %19, label %17

17:                                               ; preds = %11
  %18 = getelementptr inbounds nuw i8, ptr %1, i64 36
  store i32 0, ptr %18, align 4, !tbaa !60
  br label %19

19:                                               ; preds = %11, %2, %17
  %.0 = phi i32 [ %15, %17 ], [ -541478725, %2 ], [ %15, %11 ]
  ret i32 %.0
}